; ModuleID = '62/369.c'
source_filename = "62/369.c"
target datalayout = "e-m:e-p270:32:32-p271:32:32-p272:64:64-i64:64-f80:128-n8:16:32:64-S128"
target triple = "x86_64-pc-linux-gnu"

@t = common dso_local global [200 x i8] zeroinitializer, align 16

; Function Attrs: noinline nounwind uwtable
define dso_local i32 @main() #0 {
  %1 = alloca i32, align 4
  %2 = alloca i32, align 4
  %3 = alloca i32, align 4
  %4 = alloca i32, align 4
  %5 = alloca i32, align 4
  %6 = alloca i32, align 4
  store i32 0, i32* %1, align 4
  %7 = call i32 (i8*, ...) bitcast (i32 (...)* @gets to i32 (i8*, ...)*)(i8* getelementptr inbounds ([200 x i8], [200 x i8]* @t, i64 0, i64 0))
  %8 = call i64 @strlen(i8* getelementptr inbounds ([200 x i8], [200 x i8]* @t, i64 0, i64 0)) #3
  %9 = trunc i64 %8 to i32
  store i32 %9, i32* %6, align 4
  store i32 0, i32* %3, align 4
  br label %10

10:                                               ; preds = %57, %0
  %11 = load i32, i32* %3, align 4
  %12 = icmp slt i32 %11, 200
  br i1 %12, label %13, label %60

13:                                               ; preds = %10
  store i32 0, i32* %4, align 4
  br label %14

14:                                               ; preds = %53, %13
  %15 = load i32, i32* %4, align 4
  %16 = load i32, i32* %6, align 4
  %17 = icmp slt i32 %15, %16
  br i1 %17, label %18, label %56

18:                                               ; preds = %14
  %19 = load i32, i32* %4, align 4
  %20 = sext i32 %19 to i64
  %21 = getelementptr inbounds [200 x i8], [200 x i8]* @t, i64 0, i64 %20
  %22 = load i8, i8* %21, align 1
  %23 = sext i8 %22 to i32
  %24 = icmp eq i32 %23, 32
  br i1 %24, label %25, label %52

25:                                               ; preds = %18
  %26 = load i32, i32* %4, align 4
  %27 = add nsw i32 %26, 1
  %28 = sext i32 %27 to i64
  %29 = getelementptr inbounds [200 x i8], [200 x i8]* @t, i64 0, i64 %28
  %30 = load i8, i8* %29, align 1
  %31 = sext i8 %30 to i32
  %32 = icmp eq i32 %31, 32
  br i1 %32, label %33, label %52

33:                                               ; preds = %25
  %34 = load i32, i32* %4, align 4
  store i32 %34, i32* %2, align 4
  br label %35

35:                                               ; preds = %48, %33
  %36 = load i32, i32* %2, align 4
  %37 = load i32, i32* %6, align 4
  %38 = icmp slt i32 %36, %37
  br i1 %38, label %39, label %51

39:                                               ; preds = %35
  %40 = load i32, i32* %2, align 4
  %41 = add nsw i32 %40, 1
  %42 = sext i32 %41 to i64
  %43 = getelementptr inbounds [200 x i8], [200 x i8]* @t, i64 0, i64 %42
  %44 = load i8, i8* %43, align 1
  %45 = load i32, i32* %2, align 4
  %46 = sext i32 %45 to i64
  %47 = getelementptr inbounds [200 x i8], [200 x i8]* @t, i64 0, i64 %46
  store i8 %44, i8* %47, align 1
  br label %48

48:                                               ; preds = %39
  %49 = load i32, i32* %2, align 4
  %50 = add nsw i32 %49, 1
  store i32 %50, i32* %2, align 4
  br label %35

51:                                               ; preds = %35
  br label %52

52:                                               ; preds = %51, %25, %18
  br label %53

53:                                               ; preds = %52
  %54 = load i32, i32* %4, align 4
  %55 = add nsw i32 %54, 1
  store i32 %55, i32* %4, align 4
  br label %14

56:                                               ; preds = %14
  br label %57

57:                                               ; preds = %56
  %58 = load i32, i32* %3, align 4
  %59 = add nsw i32 %58, 1
  store i32 %59, i32* %3, align 4
  br label %10

60:                                               ; preds = %10
  %61 = call i32 @puts(i8* getelementptr inbounds ([200 x i8], [200 x i8]* @t, i64 0, i64 0))
  ret i32 0
}

declare dso_local i32 @gets(...) #1

; Function Attrs: nounwind readonly
declare dso_local i64 @strlen(i8*) #2

declare dso_local i32 @puts(i8*) #1


!llvm.module.flags = !{!0}
!llvm.ident = !{!1}

!0 = !{i32 1, !"wchar_size", i32 4}
!1 = !{!"clang version 10.0.0-4ubuntu1 "}
